target datalayout = "e-m:e-p270:32:32-p271:32:32-p272:64:64-i64:64-i128:128-f80:128-n8:16:32:64-S128"
target triple = "x86_64-pc-linux-gnu"

; Function Attrs: nounwind uwtable
define dso_local i32 @lpSafeToAdd(ptr noundef %0, i64 noundef %1) #0 {
  %3 = alloca i32, align 4
  %4 = alloca ptr, align 8
  %5 = alloca i64, align 8
  %6 = alloca i64, align 8
  %7 = alloca i32, align 4
  store ptr %0, ptr %4, align 8, !tbaa !5
  store i64 %1, ptr %5, align 8, !tbaa !10
  call void @llvm.lifetime.start.p0(i64 8, ptr %6) #10
  %8 = load ptr, ptr %4, align 8, !tbaa !5
  %9 = icmp ne ptr %8, null
  br i1 %9, label %10, label %34

10:                                               ; preds = %2
  %11 = load ptr, ptr %4, align 8, !tbaa !5
  %12 = getelementptr inbounds i8, ptr %11, i64 0
  %13 = load i8, ptr %12, align 1, !tbaa !12
  %14 = zext i8 %13 to i32
  %15 = shl i32 %14, 0
  %16 = load ptr, ptr %4, align 8, !tbaa !5
  %17 = getelementptr inbounds i8, ptr %16, i64 1
  %18 = load i8, ptr %17, align 1, !tbaa !12
  %19 = zext i8 %18 to i32
  %20 = shl i32 %19, 8
  %21 = or i32 %15, %20
  %22 = load ptr, ptr %4, align 8, !tbaa !5
  %23 = getelementptr inbounds i8, ptr %22, i64 2
  %24 = load i8, ptr %23, align 1, !tbaa !12
  %25 = zext i8 %24 to i32
  %26 = shl i32 %25, 16
  %27 = or i32 %21, %26
  %28 = load ptr, ptr %4, align 8, !tbaa !5
  %29 = getelementptr inbounds i8, ptr %28, i64 3
  %30 = load i8, ptr %29, align 1, !tbaa !12
  %31 = zext i8 %30 to i32
  %32 = shl i32 %31, 24
  %33 = or i32 %27, %32
  br label %35

34:                                               ; preds = %2
  br label %35

35:                                               ; preds = %34, %10
  %36 = phi i32 [ %33, %10 ], [ 0, %34 ]
  %37 = zext i32 %36 to i64
  store i64 %37, ptr %6, align 8, !tbaa !10
  %38 = load i64, ptr %6, align 8, !tbaa !10
  %39 = load i64, ptr %5, align 8, !tbaa !10
  %40 = add i64 %38, %39
  %41 = icmp ugt i64 %40, 1073741824
  br i1 %41, label %42, label %43

42:                                               ; preds = %35
  store i32 0, ptr %3, align 4
  store i32 1, ptr %7, align 4
  br label %44

43:                                               ; preds = %35
  store i32 1, ptr %3, align 4
  store i32 1, ptr %7, align 4
  br label %44

44:                                               ; preds = %43, %42
  call void @llvm.lifetime.end.p0(i64 8, ptr %6) #10
  %45 = load i32, ptr %3, align 4
  ret i32 %45
}